target datalayout = "e-m:e-p270:32:32-p271:32:32-p272:64:64-i64:64-i128:128-f80:128-n8:16:32:64-S128"
target triple = "x86_64-pc-linux-gnu"

%struct.object_id = type { [32 x i8], i32 }
%struct.kh_oid_map = type { i32, i32, i32, i32, ptr, ptr, ptr }
%struct.island_bitmap = type { i32, [0 x i32] }

@island_marks = internal global ptr null, align 8
@island_bitmap_size = internal global i32 0, align 4

; Function Attrs: inlinehint nounwind uwtable
define internal i32 @oideq(ptr noundef %0, ptr noundef %1) #2 {
  %3 = alloca ptr, align 8
  %4 = alloca ptr, align 8
  store ptr %0, ptr %3, align 8, !tbaa !4
  store ptr %1, ptr %4, align 8, !tbaa !4
  %5 = load ptr, ptr %3, align 8, !tbaa !4
  %6 = getelementptr inbounds nuw %struct.object_id, ptr %5, i32 0, i32 0
  %7 = getelementptr inbounds [32 x i8], ptr %6, i64 0, i64 0
  %8 = load ptr, ptr %4, align 8, !tbaa !4
  %9 = getelementptr inbounds nuw %struct.object_id, ptr %8, i32 0, i32 0
  %10 = getelementptr inbounds [32 x i8], ptr %9, i64 0, i64 0
  %11 = call i32 @memcmp(ptr noundef %7, ptr noundef %10, i64 noundef 32) #12
  %12 = icmp ne i32 %11, 0
  %13 = xor i1 %12, true
  %14 = zext i1 %13 to i32
  ret i32 %14
}

; Function Attrs: inlinehint nounwind uwtable
define internal i32 @oidhash(ptr noundef %0) #2 {
  %2 = alloca ptr, align 8
  %3 = alloca i32, align 4
  store ptr %0, ptr %2, align 8, !tbaa !4
  call void @llvm.lifetime.start.p0(i64 4, ptr %3) #10
  %4 = load ptr, ptr %2, align 8, !tbaa !4
  %5 = getelementptr inbounds nuw %struct.object_id, ptr %4, i32 0, i32 0
  %6 = getelementptr inbounds [32 x i8], ptr %5, i64 0, i64 0
  call void @llvm.memcpy.p0.p0.i64(ptr align 4 %3, ptr align 4 %6, i64 4, i1 false)
  %7 = load i32, ptr %3, align 4, !tbaa !13
  call void @llvm.lifetime.end.p0(i64 4, ptr %3) #10
  ret i32 %7
}

; Function Attrs: inlinehint nounwind uwtable
define internal i32 @oideq_by_value(ptr noundef byval(%struct.object_id) align 8 %0, ptr noundef byval(%struct.object_id) align 8 %1) #2 {
  %3 = call i32 @oideq(ptr noundef %0, ptr noundef %1)
  ret i32 %3
}

; Function Attrs: inlinehint nounwind uwtable
define internal i32 @oidhash_by_value(ptr noundef byval(%struct.object_id) align 8 %0) #2 {
  %2 = call i32 @oidhash(ptr noundef %0)
  ret i32 %2
}

; Function Attrs: nounwind uwtable
define internal i32 @island_bitmap_is_subset(ptr noundef %0, ptr noundef %1) #0 {
  %3 = alloca i32, align 4
  %4 = alloca ptr, align 8
  %5 = alloca ptr, align 8
  %6 = alloca i32, align 4
  %7 = alloca i32, align 4
  store ptr %0, ptr %4, align 8, !tbaa !24
  store ptr %1, ptr %5, align 8, !tbaa !24
  call void @llvm.lifetime.start.p0(i64 4, ptr %6) #10
  %8 = load ptr, ptr %4, align 8, !tbaa !24
  %9 = load ptr, ptr %5, align 8, !tbaa !24
  %10 = icmp eq ptr %8, %9
  br i1 %10, label %11, label %12

11:                                               ; preds = %2
  store i32 1, ptr %3, align 4
  store i32 1, ptr %7, align 4
  br label %44

12:                                               ; preds = %2
  store i32 0, ptr %6, align 4, !tbaa !13
  br label %13

13:                                               ; preds = %40, %12
  %14 = load i32, ptr %6, align 4, !tbaa !13
  %15 = load i32, ptr @island_bitmap_size, align 4, !tbaa !13
  %16 = icmp ult i32 %14, %15
  br i1 %16, label %17, label %43

17:                                               ; preds = %13
  %18 = load ptr, ptr %4, align 8, !tbaa !24
  %19 = getelementptr inbounds nuw %struct.island_bitmap, ptr %18, i32 0, i32 1
  %20 = load i32, ptr %6, align 4, !tbaa !13
  %21 = zext i32 %20 to i64
  %22 = getelementptr inbounds nuw [0 x i32], ptr %19, i64 0, i64 %21
  %23 = load i32, ptr %22, align 4, !tbaa !13
  %24 = load ptr, ptr %5, align 8, !tbaa !24
  %25 = getelementptr inbounds nuw %struct.island_bitmap, ptr %24, i32 0, i32 1
  %26 = load i32, ptr %6, align 4, !tbaa !13
  %27 = zext i32 %26 to i64
  %28 = getelementptr inbounds nuw [0 x i32], ptr %25, i64 0, i64 %27
  %29 = load i32, ptr %28, align 4, !tbaa !13
  %30 = and i32 %23, %29
  %31 = load ptr, ptr %4, align 8, !tbaa !24
  %32 = getelementptr inbounds nuw %struct.island_bitmap, ptr %31, i32 0, i32 1
  %33 = load i32, ptr %6, align 4, !tbaa !13
  %34 = zext i32 %33 to i64
  %35 = getelementptr inbounds nuw [0 x i32], ptr %32, i64 0, i64 %34
  %36 = load i32, ptr %35, align 4, !tbaa !13
  %37 = icmp ne i32 %30, %36
  br i1 %37, label %38, label %39

38:                                               ; preds = %17
  store i32 0, ptr %3, align 4
  store i32 1, ptr %7, align 4
  br label %44

39:                                               ; preds = %17
  br label %40

40:                                               ; preds = %39
  %41 = load i32, ptr %6, align 4, !tbaa !13
  %42 = add i32 %41, 1
  store i32 %42, ptr %6, align 4, !tbaa !13
  br label %13, !llvm.loop !26

43:                                               ; preds = %13
  store i32 1, ptr %3, align 4
  store i32 1, ptr %7, align 4
  br label %44

44:                                               ; preds = %43, %38, %11
  call void @llvm.lifetime.end.p0(i64 4, ptr %6) #10
  %45 = load i32, ptr %3, align 4
  ret i32 %45
}

; Function Attrs: inlinehint nounwind uwtable
define internal i32 @kh_get_oid_map(ptr noundef %0, ptr noundef byval(%struct.object_id) align 8 %1) #2 {
  %3 = alloca i32, align 4
  %4 = alloca ptr, align 8
  %5 = alloca i32, align 4
  %6 = alloca i32, align 4
  %7 = alloca i32, align 4
  %8 = alloca i32, align 4
  %9 = alloca i32, align 4
  %10 = alloca %struct.object_id, align 8
  %11 = alloca i32, align 4
  store ptr %0, ptr %4, align 8, !tbaa !9
  %12 = load ptr, ptr %4, align 8, !tbaa !9
  %13 = getelementptr inbounds nuw %struct.kh_oid_map, ptr %12, i32 0, i32 0
  %14 = load i32, ptr %13, align 8, !tbaa !15
  %15 = icmp ne i32 %14, 0
  br i1 %15, label %16, label %109

16:                                               ; preds = %2
  call void @llvm.lifetime.start.p0(i64 4, ptr %5) #10
  call void @llvm.lifetime.start.p0(i64 4, ptr %6) #10
  call void @llvm.lifetime.start.p0(i64 4, ptr %7) #10
  call void @llvm.lifetime.start.p0(i64 4, ptr %8) #10
  call void @llvm.lifetime.start.p0(i64 4, ptr %9) #10
  store i32 0, ptr %9, align 4, !tbaa !13
  %17 = load ptr, ptr %4, align 8, !tbaa !9
  %18 = getelementptr inbounds nuw %struct.kh_oid_map, ptr %17, i32 0, i32 0
  %19 = load i32, ptr %18, align 8, !tbaa !15
  %20 = sub i32 %19, 1
  store i32 %20, ptr %8, align 4, !tbaa !13
  %21 = call i32 @oidhash_by_value(ptr noundef byval(%struct.object_id) align 8 %1)
  store i32 %21, ptr %5, align 4, !tbaa !13
  %22 = load i32, ptr %5, align 4, !tbaa !13
  %23 = load i32, ptr %8, align 4, !tbaa !13
  %24 = and i32 %22, %23
  store i32 %24, ptr %6, align 4, !tbaa !13
  %25 = load i32, ptr %6, align 4, !tbaa !13
  store i32 %25, ptr %7, align 4, !tbaa !13
  br label %26

26:                                               ; preds = %84, %16
  %27 = load ptr, ptr %4, align 8, !tbaa !9
  %28 = getelementptr inbounds nuw %struct.kh_oid_map, ptr %27, i32 0, i32 4
  %29 = load ptr, ptr %28, align 8, !tbaa !20
  %30 = load i32, ptr %6, align 4, !tbaa !13
  %31 = lshr i32 %30, 4
  %32 = zext i32 %31 to i64
  %33 = getelementptr inbounds nuw i32, ptr %29, i64 %32
  %34 = load i32, ptr %33, align 4, !tbaa !13
  %35 = load i32, ptr %6, align 4, !tbaa !13
  %36 = and i32 %35, 15
  %37 = shl i32 %36, 1
  %38 = lshr i32 %34, %37
  %39 = and i32 %38, 2
  %40 = icmp ne i32 %39, 0
  br i1 %40, label %68, label %41

41:                                               ; preds = %26
  %42 = load ptr, ptr %4, align 8, !tbaa !9
  %43 = getelementptr inbounds nuw %struct.kh_oid_map, ptr %42, i32 0, i32 4
  %44 = load ptr, ptr %43, align 8, !tbaa !20
  %45 = load i32, ptr %6, align 4, !tbaa !13
  %46 = lshr i32 %45, 4
  %47 = zext i32 %46 to i64
  %48 = getelementptr inbounds nuw i32, ptr %44, i64 %47
  %49 = load i32, ptr %48, align 4, !tbaa !13
  %50 = load i32, ptr %6, align 4, !tbaa !13
  %51 = and i32 %50, 15
  %52 = shl i32 %51, 1
  %53 = lshr i32 %49, %52
  %54 = and i32 %53, 1
  %55 = icmp ne i32 %54, 0
  br i1 %55, label %66, label %56

56:                                               ; preds = %41
  %57 = load ptr, ptr %4, align 8, !tbaa !9
  %58 = getelementptr inbounds nuw %struct.kh_oid_map, ptr %57, i32 0, i32 5
  %59 = load ptr, ptr %58, align 8, !tbaa !21
  %60 = load i32, ptr %6, align 4, !tbaa !13
  %61 = zext i32 %60 to i64
  %62 = getelementptr inbounds nuw %struct.object_id, ptr %59, i64 %61
  call void @llvm.lifetime.start.p0(i64 36, ptr %10) #10
  call void @llvm.memcpy.p0.p0.i64(ptr align 8 %10, ptr align 4 %62, i64 36, i1 false), !tbaa.struct !11
  %63 = call i32 @oideq_by_value(ptr noundef byval(%struct.object_id) align 8 %10, ptr noundef byval(%struct.object_id) align 8 %1)
  call void @llvm.lifetime.end.p0(i64 36, ptr %10) #10
  %64 = icmp ne i32 %63, 0
  %65 = xor i1 %64, true
  br label %66

66:                                               ; preds = %56, %41
  %67 = phi i1 [ true, %41 ], [ %65, %56 ]
  br label %68

68:                                               ; preds = %66, %26
  %69 = phi i1 [ false, %26 ], [ %67, %66 ]
  br i1 %69, label %70, label %85

70:                                               ; preds = %68
  %71 = load i32, ptr %6, align 4, !tbaa !13
  %72 = load i32, ptr %9, align 4, !tbaa !13
  %73 = add i32 %72, 1
  store i32 %73, ptr %9, align 4, !tbaa !13
  %74 = add i32 %71, %73
  %75 = load i32, ptr %8, align 4, !tbaa !13
  %76 = and i32 %74, %75
  store i32 %76, ptr %6, align 4, !tbaa !13
  %77 = load i32, ptr %6, align 4, !tbaa !13
  %78 = load i32, ptr %7, align 4, !tbaa !13
  %79 = icmp eq i32 %77, %78
  br i1 %79, label %80, label %84

80:                                               ; preds = %70
  %81 = load ptr, ptr %4, align 8, !tbaa !9
  %82 = getelementptr inbounds nuw %struct.kh_oid_map, ptr %81, i32 0, i32 0
  %83 = load i32, ptr %82, align 8, !tbaa !15
  store i32 %83, ptr %3, align 4
  store i32 1, ptr %11, align 4
  br label %108

84:                                               ; preds = %70
  br label %26, !llvm.loop !22

85:                                               ; preds = %68
  %86 = load ptr, ptr %4, align 8, !tbaa !9
  %87 = getelementptr inbounds nuw %struct.kh_oid_map, ptr %86, i32 0, i32 4
  %88 = load ptr, ptr %87, align 8, !tbaa !20
  %89 = load i32, ptr %6, align 4, !tbaa !13
  %90 = lshr i32 %89, 4
  %91 = zext i32 %90 to i64
  %92 = getelementptr inbounds nuw i32, ptr %88, i64 %91
  %93 = load i32, ptr %92, align 4, !tbaa !13
  %94 = load i32, ptr %6, align 4, !tbaa !13
  %95 = and i32 %94, 15
  %96 = shl i32 %95, 1
  %97 = lshr i32 %93, %96
  %98 = and i32 %97, 3
  %99 = icmp ne i32 %98, 0
  br i1 %99, label %100, label %104

100:                                              ; preds = %85
  %101 = load ptr, ptr %4, align 8, !tbaa !9
  %102 = getelementptr inbounds nuw %struct.kh_oid_map, ptr %101, i32 0, i32 0
  %103 = load i32, ptr %102, align 8, !tbaa !15
  br label %106

104:                                              ; preds = %85
  %105 = load i32, ptr %6, align 4, !tbaa !13
  br label %106

106:                                              ; preds = %104, %100
  %107 = phi i32 [ %103, %100 ], [ %105, %104 ]
  store i32 %107, ptr %3, align 4
  store i32 1, ptr %11, align 4
  br label %108

108:                                              ; preds = %106, %80
  call void @llvm.lifetime.end.p0(i64 4, ptr %9) #10
  call void @llvm.lifetime.end.p0(i64 4, ptr %8) #10
  call void @llvm.lifetime.end.p0(i64 4, ptr %7) #10
  call void @llvm.lifetime.end.p0(i64 4, ptr %6) #10
  call void @llvm.lifetime.end.p0(i64 4, ptr %5) #10
  br label %110

109:                                              ; preds = %2
  store i32 0, ptr %3, align 4
  br label %110

110:                                              ; preds = %109, %108
  %111 = load i32, ptr %3, align 4
  ret i32 %111
}

; Function Attrs: nounwind uwtable
define dso_local i32 @in_same_island(ptr noundef %0, ptr noundef %1) #0 {
  %3 = alloca i32, align 4
  %4 = alloca ptr, align 8
  %5 = alloca ptr, align 8
  %6 = alloca i32, align 4
  %7 = alloca i32, align 4
  %8 = alloca i32, align 4
  %9 = alloca %struct.object_id, align 8
  %10 = alloca %struct.object_id, align 8
  store ptr %0, ptr %4, align 8, !tbaa !4
  store ptr %1, ptr %5, align 8, !tbaa !4
  call void @llvm.lifetime.start.p0(i64 4, ptr %6) #10
  call void @llvm.lifetime.start.p0(i64 4, ptr %7) #10
  %11 = load ptr, ptr @island_marks, align 8, !tbaa !9
  %12 = icmp ne ptr %11, null
  br i1 %12, label %14, label %13

13:                                               ; preds = %2
  store i32 1, ptr %3, align 4
  store i32 1, ptr %8, align 4
  br label %50

14:                                               ; preds = %2
  %15 = load ptr, ptr @island_marks, align 8, !tbaa !9
  %16 = load ptr, ptr %4, align 8, !tbaa !4
  call void @llvm.lifetime.start.p0(i64 36, ptr %9) #10
  call void @llvm.memcpy.p0.p0.i64(ptr align 8 %9, ptr align 4 %16, i64 36, i1 false), !tbaa.struct !11
  %17 = call i32 @kh_get_oid_map(ptr noundef %15, ptr noundef byval(%struct.object_id) align 8 %9)
  call void @llvm.lifetime.end.p0(i64 36, ptr %9) #10
  store i32 %17, ptr %6, align 4, !tbaa !13
  %18 = load i32, ptr %6, align 4, !tbaa !13
  %19 = load ptr, ptr @island_marks, align 8, !tbaa !9
  %20 = getelementptr inbounds nuw %struct.kh_oid_map, ptr %19, i32 0, i32 0
  %21 = load i32, ptr %20, align 8, !tbaa !15
  %22 = icmp uge i32 %18, %21
  br i1 %22, label %23, label %24

23:                                               ; preds = %14
  store i32 1, ptr %3, align 4
  store i32 1, ptr %8, align 4
  br label %50

24:                                               ; preds = %14
  %25 = load ptr, ptr @island_marks, align 8, !tbaa !9
  %26 = load ptr, ptr %5, align 8, !tbaa !4
  call void @llvm.lifetime.start.p0(i64 36, ptr %10) #10
  call void @llvm.memcpy.p0.p0.i64(ptr align 8 %10, ptr align 4 %26, i64 36, i1 false), !tbaa.struct !11
  %27 = call i32 @kh_get_oid_map(ptr noundef %25, ptr noundef byval(%struct.object_id) align 8 %10)
  call void @llvm.lifetime.end.p0(i64 36, ptr %10) #10
  store i32 %27, ptr %7, align 4, !tbaa !13
  %28 = load i32, ptr %7, align 4, !tbaa !13
  %29 = load ptr, ptr @island_marks, align 8, !tbaa !9
  %30 = getelementptr inbounds nuw %struct.kh_oid_map, ptr %29, i32 0, i32 0
  %31 = load i32, ptr %30, align 8, !tbaa !15
  %32 = icmp uge i32 %28, %31
  br i1 %32, label %33, label %34

33:                                               ; preds = %24
  store i32 0, ptr %3, align 4
  store i32 1, ptr %8, align 4
  br label %50

34:                                               ; preds = %24
  %35 = load ptr, ptr @island_marks, align 8, !tbaa !9
  %36 = getelementptr inbounds nuw %struct.kh_oid_map, ptr %35, i32 0, i32 6
  %37 = load ptr, ptr %36, align 8, !tbaa !18
  %38 = load i32, ptr %6, align 4, !tbaa !13
  %39 = zext i32 %38 to i64
  %40 = getelementptr inbounds nuw ptr, ptr %37, i64 %39
  %41 = load ptr, ptr %40, align 8, !tbaa !19
  %42 = load ptr, ptr @island_marks, align 8, !tbaa !9
  %43 = getelementptr inbounds nuw %struct.kh_oid_map, ptr %42, i32 0, i32 6
  %44 = load ptr, ptr %43, align 8, !tbaa !18
  %45 = load i32, ptr %7, align 4, !tbaa !13
  %46 = zext i32 %45 to i64
  %47 = getelementptr inbounds nuw ptr, ptr %44, i64 %46
  %48 = load ptr, ptr %47, align 8, !tbaa !19
  %49 = call i32 @island_bitmap_is_subset(ptr noundef %41, ptr noundef %48)
  store i32 %49, ptr %3, align 4
  store i32 1, ptr %8, align 4
  br label %50

50:                                               ; preds = %34, %33, %23, %13
  call void @llvm.lifetime.end.p0(i64 4, ptr %7) #10
  call void @llvm.lifetime.end.p0(i64 4, ptr %6) #10
  %51 = load i32, ptr %3, align 4
  ret i32 %51
}