; Function Attrs: nofree nounwind memory(readwrite, inaccessiblemem: none) uwtable
define dso_local range(i32 0, 2) i32 @in_same_island(ptr noundef readonly captures(none) %0, ptr noundef readonly captures(none) %1) local_unnamed_addr #0 {
  %3 = alloca %struct.object_id, align 8
  %4 = alloca %struct.object_id, align 8
  %5 = alloca %struct.object_id, align 8
  %6 = alloca %struct.object_id, align 8
  %7 = load ptr, ptr @island_marks, align 8, !tbaa !4
  %.not = icmp eq ptr %7, null
  br i1 %.not, label %island_bitmap_is_subset.exit, label %8

8:                                                ; preds = %2
  call void @llvm.lifetime.start.p0(i64 36, ptr nonnull %6)
  call void @llvm.memcpy.p0.p0.i64(ptr noundef nonnull align 8 dereferenceable(36) %6, ptr noundef nonnull align 4 dereferenceable(36) %0, i64 36, i1 false)
  %9 = load i32, ptr %7, align 8, !tbaa !9
  %.not.i = icmp eq i32 %9, 0
  br i1 %.not.i, label %kh_get_oid_map.exit, label %10

10:                                               ; preds = %8
  %11 = add i32 %9, -1
  %.val.i = load i32, ptr %6, align 8
  %12 = and i32 %.val.i, %11
  %13 = getelementptr inbounds nuw i8, ptr %7, i64 16
  %14 = load ptr, ptr %13, align 8, !tbaa !14
  %15 = getelementptr inbounds nuw i8, ptr %7, i64 24
  br label %16

16:                                               ; preds = %.critedge2.i, %10
  %.027.i = phi i32 [ %12, %10 ], [ %33, %.critedge2.i ]
  %.0.i = phi i32 [ 0, %10 ], [ %31, %.critedge2.i ]
  %17 = lshr i32 %.027.i, 4
  %18 = zext nneg i32 %17 to i64
  %19 = getelementptr inbounds nuw i32, ptr %14, i64 %18
  %20 = load i32, ptr %19, align 4, !tbaa !15
  %21 = shl i32 %.027.i, 1
  %22 = and i32 %21, 30
  %23 = lshr i32 %20, %22
  %24 = and i32 %23, 2
  %.not30.i = icmp eq i32 %24, 0
  br i1 %.not30.i, label %25, label %.critedge.i

25:                                               ; preds = %16
  %26 = and i32 %23, 1
  %.not31.i = icmp eq i32 %26, 0
  br i1 %.not31.i, label %27, label %.critedge2.i

27:                                               ; preds = %25
  %28 = load ptr, ptr %15, align 8, !tbaa !16
  %29 = zext i32 %.027.i to i64
  %30 = getelementptr inbounds nuw %struct.object_id, ptr %28, i64 %29
  call void @llvm.lifetime.start.p0(i64 36, ptr nonnull %5) #17
  call void @llvm.memcpy.p0.p0.i64(ptr noundef nonnull align 8 dereferenceable(36) %5, ptr noundef nonnull align 4 dereferenceable(36) %30, i64 36, i1 false), !tbaa.struct !17
  %bcmp.i.i.i = call i32 @bcmp(ptr noundef nonnull readonly align 8 dereferenceable(32) %5, ptr noundef nonnull readonly align 8 dereferenceable(32) %6, i64 32)
  %.not.i.i.not.i = icmp eq i32 %bcmp.i.i.i, 0
  call void @llvm.lifetime.end.p0(i64 36, ptr nonnull %5) #17
  br i1 %.not.i.i.not.i, label %.critedge.i, label %.critedge2.i

.critedge2.i:                                     ; preds = %27, %25
  %31 = add i32 %.0.i, 1
  %32 = add i32 %31, %.027.i
  %33 = and i32 %32, %11
  %34 = icmp eq i32 %33, %12
  br i1 %34, label %kh_get_oid_map.exit.thread, label %16, !llvm.loop !19

kh_get_oid_map.exit.thread:                       ; preds = %.critedge2.i
  call void @llvm.lifetime.end.p0(i64 36, ptr nonnull %6)
  br label %island_bitmap_is_subset.exit

.critedge.i:                                      ; preds = %27, %16
  %35 = shl nuw i32 3, %22
  %36 = and i32 %35, %20
  %.not33.i = icmp eq i32 %36, 0
  %spec.select.i = select i1 %.not33.i, i32 %.027.i, i32 %9
  br label %kh_get_oid_map.exit

kh_get_oid_map.exit:                              ; preds = %8, %.critedge.i
  %.1.i = phi i32 [ 0, %8 ], [ %spec.select.i, %.critedge.i ]
  call void @llvm.lifetime.end.p0(i64 36, ptr nonnull %6)
  %.not9 = icmp ult i32 %.1.i, %9
  br i1 %.not9, label %37, label %island_bitmap_is_subset.exit

37:                                               ; preds = %kh_get_oid_map.exit
  call void @llvm.lifetime.start.p0(i64 36, ptr nonnull %4)
  call void @llvm.memcpy.p0.p0.i64(ptr noundef nonnull align 8 dereferenceable(36) %4, ptr noundef nonnull align 4 dereferenceable(36) %1, i64 36, i1 false)
  %38 = add i32 %9, -1
  %.val.i12 = load i32, ptr %4, align 8
  %39 = and i32 %.val.i12, %38
  %40 = getelementptr inbounds nuw i8, ptr %7, i64 16
  %41 = load ptr, ptr %40, align 8, !tbaa !14
  %42 = getelementptr inbounds nuw i8, ptr %7, i64 24
  br label %43

43:                                               ; preds = %.critedge2.i21, %37
  %.027.i13 = phi i32 [ %39, %37 ], [ %60, %.critedge2.i21 ]
  %.0.i14 = phi i32 [ 0, %37 ], [ %58, %.critedge2.i21 ]
  %44 = lshr i32 %.027.i13, 4
  %45 = zext nneg i32 %44 to i64
  %46 = getelementptr inbounds nuw i32, ptr %41, i64 %45
  %47 = load i32, ptr %46, align 4, !tbaa !15
  %48 = shl i32 %.027.i13, 1
  %49 = and i32 %48, 30
  %50 = lshr i32 %47, %49
  %51 = and i32 %50, 2
  %.not30.i15 = icmp eq i32 %51, 0
  br i1 %.not30.i15, label %52, label %kh_get_oid_map.exit24

52:                                               ; preds = %43
  %53 = and i32 %50, 1
  %.not31.i20 = icmp eq i32 %53, 0
  br i1 %.not31.i20, label %54, label %.critedge2.i21

54:                                               ; preds = %52
  %55 = load ptr, ptr %42, align 8, !tbaa !16
  %56 = zext i32 %.027.i13 to i64
  %57 = getelementptr inbounds nuw %struct.object_id, ptr %55, i64 %56
  call void @llvm.lifetime.start.p0(i64 36, ptr nonnull %3) #17
  call void @llvm.memcpy.p0.p0.i64(ptr noundef nonnull align 8 dereferenceable(36) %3, ptr noundef nonnull align 4 dereferenceable(36) %57, i64 36, i1 false), !tbaa.struct !17
  %bcmp.i.i.i22 = call i32 @bcmp(ptr noundef nonnull readonly align 8 dereferenceable(32) %3, ptr noundef nonnull readonly align 8 dereferenceable(32) %4, i64 32)
  %.not.i.i.not.i23 = icmp eq i32 %bcmp.i.i.i22, 0
  call void @llvm.lifetime.end.p0(i64 36, ptr nonnull %3) #17
  br i1 %.not.i.i.not.i23, label %kh_get_oid_map.exit24, label %.critedge2.i21

.critedge2.i21:                                   ; preds = %54, %52
  %58 = add i32 %.0.i14, 1
  %59 = add i32 %58, %.027.i13
  %60 = and i32 %59, %38
  %61 = icmp eq i32 %60, %39
  br i1 %61, label %kh_get_oid_map.exit24.thread, label %43, !llvm.loop !19

kh_get_oid_map.exit24.thread:                     ; preds = %.critedge2.i21
  call void @llvm.lifetime.end.p0(i64 36, ptr nonnull %4)
  br label %island_bitmap_is_subset.exit

kh_get_oid_map.exit24:                            ; preds = %43, %54
  %62 = shl nuw i32 3, %49
  %63 = and i32 %62, %47
  %.not33.i17 = icmp eq i32 %63, 0
  %spec.select.i18 = select i1 %.not33.i17, i32 %.027.i13, i32 %9
  call void @llvm.lifetime.end.p0(i64 36, ptr nonnull %4)
  %.not10 = icmp ult i32 %spec.select.i18, %9
  br i1 %.not10, label %64, label %island_bitmap_is_subset.exit

64:                                               ; preds = %kh_get_oid_map.exit24
  %65 = getelementptr inbounds nuw i8, ptr %7, i64 32
  %66 = load ptr, ptr %65, align 8, !tbaa !21
  %67 = zext i32 %.1.i to i64
  %68 = getelementptr inbounds nuw ptr, ptr %66, i64 %67
  %69 = load ptr, ptr %68, align 8, !tbaa !22
  %70 = zext i32 %spec.select.i18 to i64
  %71 = getelementptr inbounds nuw ptr, ptr %66, i64 %70
  %72 = load ptr, ptr %71, align 8, !tbaa !22
  %73 = icmp eq ptr %69, %72
  br i1 %73, label %island_bitmap_is_subset.exit, label %.preheader.i

.preheader.i:                                     ; preds = %64
  %74 = getelementptr inbounds nuw i8, ptr %69, i64 4
  %75 = load i32, ptr @island_bitmap_size, align 4, !tbaa !15
  %.not16.i = icmp eq i32 %75, 0
  br i1 %.not16.i, label %island_bitmap_is_subset.exit, label %.lr.ph.i

.lr.ph.i:                                         ; preds = %.preheader.i
  %76 = getelementptr inbounds nuw i8, ptr %72, i64 4
  %wide.trip.count.i = zext i32 %75 to i64
  br label %78

77:                                               ; preds = %78
  %indvars.iv.next.i = add nuw nsw i64 %indvars.iv.i, 1
  %exitcond.not.i = icmp eq i64 %indvars.iv.next.i, %wide.trip.count.i
  br i1 %exitcond.not.i, label %island_bitmap_is_subset.exit, label %78, !llvm.loop !23

78:                                               ; preds = %77, %.lr.ph.i
  %indvars.iv.i = phi i64 [ 0, %.lr.ph.i ], [ %indvars.iv.next.i, %77 ]
  %79 = getelementptr inbounds nuw [0 x i32], ptr %74, i64 0, i64 %indvars.iv.i
  %80 = load i32, ptr %79, align 4, !tbaa !15
  %81 = getelementptr inbounds nuw [0 x i32], ptr %76, i64 0, i64 %indvars.iv.i
  %82 = load i32, ptr %81, align 4, !tbaa !15
  %83 = and i32 %82, %80
  %.not.i25 = icmp eq i32 %83, %80
  br i1 %.not.i25, label %77, label %island_bitmap_is_subset.exit

island_bitmap_is_subset.exit:                     ; preds = %78, %77, %.preheader.i, %64, %kh_get_oid_map.exit24.thread, %kh_get_oid_map.exit.thread, %kh_get_oid_map.exit24, %kh_get_oid_map.exit, %2
  %.0 = phi i32 [ 1, %2 ], [ 1, %kh_get_oid_map.exit ], [ 0, %kh_get_oid_map.exit24 ], [ 1, %kh_get_oid_map.exit.thread ], [ 0, %kh_get_oid_map.exit24.thread ], [ 1, %64 ], [ 1, %.preheader.i ], [ 1, %77 ], [ 0, %78 ]
  ret i32 %.0
}